(dp0
I126976
NsI126986
NsI118785
NsI127515
NsI118786
NsI8208
NsI8209
NsI8210
NsI8211
NsI8212
NsI8213
NsI8214
NsI8215
NsI8216
NsI8217
NsI8218
NsI8219
NsI8220
NsI8221
NsI8222
NsI8223
NsI8224
NsI33
NsI34
NsI35
NsI36
NsI37
NsI38
NsI39
NsI40
NsI41
NsI42
NsI43
NsI44
NsI45
NsI46
NsI47
NsI8240
NsI8241
NsI8242
NsI8243
NsI8244
NsI8245
NsI8246
NsI8247
NsI8248
NsI8249
NsI58
NsI59
NsI8252
NsI61
NsI62
NsI63
NsI64
NsI8257
NsI8258
NsI8259
NsI8260
NsI8261
NsI8262
NsI8263
NsI8264
NsI8265
NsI8266
NsI8267
NsI8268
NsI8269
NsI8270
NsI8271
NsI8272
NsI8273
NsI8274
NsI8275
NsI8276
NsI8277
NsI8278
NsI8279
NsI8280
NsI8281
NsI8282
NsI91
NsI92
NsI93
NsI94
NsI95
NsI96
NsI118800
NsI118801
NsI127120
NsI12306
NsI127072
NsI68414
NsI66017
NsI118937
NsI118804
NsI8314
NsI123
NsI124
NsI125
NsI126
NsI118805
NsI118806
NsI127121
NsI8330
NsI8331
NsI8332
NsI8333
NsI8334
NsI118808
NsI12313
NsI119598
NsI118810
NsI8352
NsI161
NsI162
NsI163
NsI164
NsI165
NsI166
NsI167
NsI168
NsI169
NsI8362
NsI171
NsI172
NsI8365
NsI174
NsI175
NsI176
NsI177
NsI8370
NsI8371
NsI180
NsI8373
NsI182
NsI183
NsI184
NsI66014
NsI187
NsI191
NsI118816
NsI127123
NsI8225
NsI8226
NsI118940
NsI8227
NsI119238
NsI215
NsI8228
NsI8229
NsI127008
NsI8230
NsI126985
NsI8231
NsI127016
NsI127251
NsI65533
NsI247
NsI118826
NsI127281
NsI8448
NsI8449
NsI65794
NsI8451
NsI8452
NsI8453
NsI8454
NsI8456
NsI8457
NsI118942
NsI8468
NsI8470
NsI8471
NsI8472
NsI8478
NsI8479
NsI8480
NsI8481
NsI8482
NsI8483
NsI8485
NsI8487
NsI8489
NsI118943
NsI127026
NsI8494
NsI119216
NsI43742
NsI9609
NsI65848
NsI65849
NsI8506
NsI8507
NsI65852
NsI9610
NsI65854
NsI65855
NsI8512
NsI8513
NsI8514
NsI8515
NsI8516
NsI118838
NsI119260
NsI8522
NsI8523
NsI8524
NsI8525
NsI8527
NsI127032
NsI12059
NsI127033
NsI119192
NsI8250
NsI119631
NsI8251
NsI119611
NsI60
NsI8253
NsI8254
NsI127009
NsI65913
NsI65914
NsI8255
NsI65916
NsI65917
NsI65918
NsI65919
NsI65920
NsI8256
NsI65922
NsI65923
NsI65924
NsI65925
NsI65926
NsI65927
NsI65928
NsI65929
NsI119219
NsI8592
NsI8593
NsI8594
NsI8595
NsI8596
NsI8597
NsI8598
NsI8599
NsI8600
NsI8601
NsI8602
NsI8603
NsI8604
NsI8605
NsI8606
NsI8607
NsI8608
NsI8609
NsI8610
NsI8611
NsI8612
NsI8613
NsI8614
NsI8615
NsI8616
NsI8617
NsI8618
NsI8619
NsI8620
NsI8621
NsI8622
NsI8623
NsI8624
NsI8625
NsI8626
NsI8627
NsI8628
NsI8629
NsI8630
NsI8631
NsI8632
NsI8633
NsI8634
NsI8635
NsI8636
NsI8637
NsI8638
NsI8639
NsI8640
NsI8641
NsI8642
NsI8643
NsI8644
NsI8645
NsI8646
NsI8647
NsI8648
NsI8649
NsI8650
NsI8651
NsI8652
NsI8653
NsI8654
NsI8655
NsI8656
NsI8657
NsI8658
NsI8659
NsI8660
NsI8661
NsI8662
NsI8663
NsI8664
NsI8665
NsI8666
NsI8667
NsI8668
NsI8669
NsI8670
NsI8671
NsI8672
NsI8673
NsI8674
NsI8675
NsI8676
NsI8677
NsI8678
NsI8679
NsI8680
NsI8681
NsI8682
NsI8683
NsI8684
NsI8685
NsI8686
NsI8687
NsI8688
NsI8689
NsI8690
NsI8691
NsI8692
NsI8693
NsI8694
NsI8695
NsI8696
NsI8697
NsI8698
NsI8699
NsI8700
NsI8701
NsI8702
NsI8703
NsI8704
NsI8705
NsI8706
NsI8707
NsI8708
NsI8709
NsI8710
NsI8711
NsI8712
NsI8713
NsI8714
NsI8715
NsI8716
NsI8717
NsI8718
NsI8719
NsI8720
NsI8721
NsI8722
NsI8723
NsI8724
NsI8725
NsI8726
NsI8727
NsI8728
NsI8729
NsI8730
NsI8731
NsI8732
NsI8733
NsI8734
NsI8735
NsI8736
NsI8737
NsI8738
NsI8739
NsI8740
NsI8741
NsI8742
NsI8743
NsI8744
NsI8284
NsI8746
NsI8747
NsI8748
NsI8749
NsI8750
NsI8285
NsI8752
NsI8753
NsI8754
NsI8755
NsI8756
NsI8286
NsI8758
NsI8759
NsI8760
NsI8761
NsI8762
NsI8763
NsI8764
NsI8765
NsI8766
NsI8767
NsI8768
NsI8769
NsI8770
NsI8771
NsI8772
NsI8773
NsI8774
NsI8775
NsI8776
NsI8777
NsI8778
NsI8779
NsI8780
NsI8781
NsI8782
NsI8783
NsI8784
NsI8785
NsI8786
NsI8787
NsI8788
NsI8789
NsI8790
NsI8791
NsI8792
NsI8793
NsI8794
NsI8795
NsI8796
NsI8797
NsI8798
NsI8799
NsI8800
NsI8801
NsI8802
NsI8803
NsI8804
NsI8805
NsI8806
NsI8807
NsI8808
NsI8809
NsI8810
NsI8811
NsI8812
NsI8813
NsI8814
NsI8815
NsI8816
NsI8817
NsI8818
NsI8819
NsI8820
NsI8821
NsI8822
NsI8823
NsI8824
NsI8825
NsI8826
NsI8827
NsI8828
NsI8829
NsI8830
NsI8831
NsI8832
NsI8833
NsI8834
NsI8835
NsI8836
NsI8837
NsI8838
NsI8839
NsI8840
NsI8841
NsI8842
NsI8843
NsI8844
NsI8845
NsI8846
NsI8847
NsI8848
NsI8849
NsI8850
NsI8851
NsI8852
NsI8853
NsI8854
NsI8855
NsI8856
NsI8857
NsI8858
NsI8859
NsI8860
NsI8861
NsI8862
NsI8863
NsI8864
NsI8865
NsI8866
NsI8867
NsI8868
NsI8869
NsI8870
NsI8871
NsI8872
NsI8873
NsI8874
NsI8875
NsI8876
NsI8877
NsI8878
NsI8879
NsI8880
NsI8881
NsI8882
NsI8883
NsI8884
NsI8885
NsI8886
NsI8887
NsI8888
NsI8889
NsI8890
NsI8891
NsI8892
NsI8893
NsI8894
NsI8895
NsI8896
NsI8897
NsI706
NsI8899
NsI8900
NsI709
NsI8902
NsI8903
NsI8904
NsI8905
NsI8906
NsI8907
NsI8908
NsI8909
NsI8910
NsI8911
NsI8912
NsI8913
NsI8914
NsI8915
NsI8916
NsI8917
NsI726
NsI8919
NsI8920
NsI729
NsI8922
NsI731
NsI732
NsI8925
NsI8926
NsI735
NsI8928
NsI8929
NsI8930
NsI8931
NsI8932
NsI741
NsI8934
NsI8935
NsI8936
NsI8937
NsI8938
NsI8939
NsI8940
NsI8941
NsI8942
NsI751
NsI8944
NsI8945
NsI8946
NsI755
NsI8948
NsI757
NsI8950
NsI759
NsI760
NsI761
NsI762
NsI763
NsI8956
NsI765
NsI8958
NsI767
NsI8960
NsI8961
NsI8962
NsI8963
NsI8964
NsI8965
NsI8966
NsI8967
NsI8968
NsI8969
NsI8970
NsI8971
NsI8972
NsI8973
NsI8974
NsI8975
NsI8976
NsI8977
NsI8978
NsI8979
NsI8980
NsI8981
NsI8982
NsI8983
NsI8984
NsI8985
NsI8986
NsI8987
NsI8988
NsI8989
NsI8990
NsI8991
NsI8992
NsI8993
NsI8994
NsI8995
NsI8996
NsI8997
NsI8998
NsI8999
NsI9000
NsI9001
NsI9002
NsI9003
NsI9004
NsI9005
NsI9006
NsI9007
NsI9008
NsI9009
NsI9010
NsI9011
NsI9012
NsI9013
NsI9014
NsI9015
NsI9016
NsI9017
NsI9018
NsI9019
NsI9020
NsI9021
NsI9022
NsI9023
NsI9024
NsI9025
NsI9026
NsI9027
NsI9028
NsI9029
NsI9030
NsI9031
NsI9032
NsI9033
NsI9034
NsI9035
NsI9036
NsI9037
NsI9038
NsI9039
NsI9040
NsI9041
NsI9042
NsI9043
NsI9044
NsI9045
NsI9046
NsI9047
NsI9048
NsI9049
NsI9050
NsI9051
NsI9052
NsI9053
NsI9054
NsI9055
NsI9056
NsI9057
NsI9058
NsI9059
NsI9060
NsI9061
NsI9062
NsI9063
NsI9064
NsI9065
NsI9066
NsI9067
NsI9068
NsI9069
NsI9070
NsI9071
NsI9072
NsI9073
NsI9074
NsI9075
NsI9076
NsI885
NsI9078
NsI9079
NsI9080
NsI9081
NsI9082
NsI9083
NsI9084
NsI9085
NsI894
NsI9087
NsI9088
NsI9089
NsI9090
NsI9091
NsI900
NsI901
NsI9094
NsI903
NsI9096
NsI9097
NsI9098
NsI9099
NsI9100
NsI9101
NsI9102
NsI9103
NsI9104
NsI9105
NsI9106
NsI9107
NsI9108
NsI9109
NsI9110
NsI9111
NsI9112
NsI9113
NsI9114
NsI9115
NsI9116
NsI9117
NsI9118
NsI9119
NsI9120
NsI9121
NsI9122
NsI9123
NsI9124
NsI9125
NsI9126
NsI9127
NsI9128
NsI9129
NsI9130
NsI9131
NsI9132
NsI9133
NsI9134
NsI9135
NsI9136
NsI9137
NsI9138
NsI9139
NsI9140
NsI9141
NsI9142
NsI9143
NsI9144
NsI9145
NsI9146
NsI9147
NsI9148
NsI9149
NsI9150
NsI9151
NsI9152
NsI9153
NsI9154
NsI9155
NsI9156
NsI9157
NsI9158
NsI8353
NsI9160
NsI9161
NsI9162
NsI9163
NsI9164
NsI8354
NsI9166
NsI9167
NsI9168
NsI9169
NsI9170
NsI8355
NsI9172
NsI9173
NsI9174
NsI9175
NsI9176
NsI8356
NsI9178
NsI9179
NsI9180
NsI9181
NsI9182
NsI8357
NsI9184
NsI9185
NsI9186
NsI9187
NsI9188
NsI8358
NsI9190
NsI9191
NsI9192
NsI8359
NsI8360
NsI1014
NsI8361
NsI118939
NsI9216
NsI9217
NsI9218
NsI8363
NsI9220
NsI9221
NsI9222
NsI9223
NsI9224
NsI8364
NsI9226
NsI9227
NsI9228
NsI9229
NsI9230
NsI9231
NsI9232
NsI9233
NsI9234
NsI9235
NsI9236
NsI9237
NsI9238
NsI9239
NsI9240
NsI9241
NsI9242
NsI8367
NsI9244
NsI9245
NsI9246
NsI9247
NsI9248
NsI8368
NsI9250
NsI9251
NsI9252
NsI9253
NsI9254
NsI8369
NsI9735
NsI9736
NsI9737
NsI8372
NsI9738
NsI9280
NsI9281
NsI9282
NsI9283
NsI9284
NsI8374
NsI9286
NsI9287
NsI9288
NsI9289
NsI9290
NsI8375
NsI9741
NsI8376
NsI9742
NsI9743
NsI119243
NsI118971
NsI127014
NsI118972
NsI74864
NsI74865
NsI74866
NsI74867
NsI118974
NsI118975
NsI119244
NsI119561
NsI118976
NsI1154
NsI118977
NsI127510
NsI42128
NsI42129
NsI42130
NsI42131
NsI42132
NsI42133
NsI42134
NsI42135
NsI42136
NsI42137
NsI42138
NsI42139
NsI9372
NsI9373
NsI9374
NsI9375
NsI9376
NsI9377
NsI9378
NsI9379
NsI9380
NsI9381
NsI9382
NsI9383
NsI9384
NsI9385
NsI9386
NsI9387
NsI9388
NsI9389
NsI9390
NsI9391
NsI9392
NsI9393
NsI9394
NsI9395
NsI9396
NsI9397
NsI9398
NsI9399
NsI9400
NsI9401
NsI9402
NsI9403
NsI9404
NsI9405
NsI9406
NsI9407
NsI9408
NsI9409
NsI9410
NsI9411
NsI9412
NsI9413
NsI9414
NsI9415
NsI9416
NsI9417
NsI9418
NsI9419
NsI9420
NsI9421
NsI9422
NsI9423
NsI9424
NsI9425
NsI9426
NsI9427
NsI9428
NsI9429
NsI9430
NsI9431
NsI9432
NsI9433
NsI9434
NsI9435
NsI9436
NsI9437
NsI9438
NsI9439
NsI9440
NsI9441
NsI9442
NsI9443
NsI9444
NsI9445
NsI9446
NsI9447
NsI9448
NsI9449
NsI119248
NsI119043
NsI127015
NsI42238
NsI42239
NsI9472
NsI9473
NsI9474
NsI9475
NsI9476
NsI9477
NsI9478
NsI9479
NsI9480
NsI9481
NsI9482
NsI9483
NsI9484
NsI9485
NsI9486
NsI9487
NsI9488
NsI9489
NsI9490
NsI9491
NsI9492
NsI9493
NsI9494
NsI9495
NsI9496
NsI9497
NsI9498
NsI9499
NsI9500
NsI9501
NsI9502
NsI9503
NsI9504
NsI9505
NsI9506
NsI9507
NsI9508
NsI9509
NsI9510
NsI9511
NsI9512
NsI9513
NsI9514
NsI9515
NsI9516
NsI9517
NsI9518
NsI9519
NsI9520
NsI9521
NsI9522
NsI9523
NsI9524
NsI9525
NsI9526
NsI9527
NsI9528
NsI9529
NsI9530
NsI9531
NsI9532
NsI9533
NsI9534
NsI9535
NsI9536
NsI9537
NsI9538
NsI9539
NsI9540
NsI9541
NsI9542
NsI9543
NsI9544
NsI9545
NsI9546
NsI9547
NsI9548
NsI9549
NsI9550
NsI9551
NsI9552
NsI9553
NsI9554
NsI9555
NsI9556
NsI9557
NsI9558
NsI9559
NsI9560
NsI9561
NsI1370
NsI1371
NsI1372
NsI1373
NsI1374
NsI1375
NsI9568
NsI9569
NsI9570
NsI9571
NsI9572
NsI9573
NsI9574
NsI9575
NsI9576
NsI9577
NsI9578
NsI9579
NsI9580
NsI9581
NsI9582
NsI9583
NsI9584
NsI9585
NsI9586
NsI9587
NsI9588
NsI9589
NsI9590
NsI9591
NsI9592
NsI9593
NsI9594
NsI9595
NsI9596
NsI9597
NsI9598
NsI9599
NsI9600
NsI9601
NsI9602
NsI9603
NsI9604
NsI9605
NsI9606
NsI9607
NsI9608
NsI1417
NsI1418
NsI9611
NsI9612
NsI9613
NsI9614
NsI9615
NsI9616
NsI9617
NsI9618
NsI9619
NsI9620
NsI9621
NsI9622
NsI9623
NsI9624
NsI9625
NsI9626
NsI9627
NsI9628
NsI9629
NsI9630
NsI9631
NsI9632
NsI9633
NsI9634
NsI9635
NsI9636
NsI9637
NsI9638
NsI9639
NsI9640
NsI9641
NsI9642
NsI9643
NsI9644
NsI9645
NsI9646
NsI9647
NsI9648
NsI9649
NsI9650
NsI9651
NsI9652
NsI9653
NsI9654
NsI9655
NsI9656
NsI9657
NsI9658
NsI9659
NsI9660
NsI9661
NsI1470
NsI9663
NsI1472
NsI9665
NsI9666
NsI1475
NsI9668
NsI9669
NsI1478
NsI9671
NsI9672
NsI9673
NsI9674
NsI9675
NsI9676
NsI9677
NsI9678
NsI9679
NsI9680
NsI9681
NsI9682
NsI9683
NsI9684
NsI9685
NsI9686
NsI9687
NsI9688
NsI9689
NsI9690
NsI9691
NsI9692
NsI9693
NsI9694
NsI9695
NsI9696
NsI9697
NsI9698
NsI9699
NsI9700
NsI9701
NsI9702
NsI9703
NsI9704
NsI9705
NsI9706
NsI9707
NsI9708
NsI9709
NsI9710
NsI9711
NsI9712
NsI9713
NsI9714
NsI1523
NsI1524
NsI9717
NsI9718
NsI9719
NsI9720
NsI9721
NsI9722
NsI9723
NsI9724
NsI9725
NsI9726
NsI9727
NsI9728
NsI9729
NsI9730
NsI9731
NsI9732
NsI9733
NsI1542
NsI1543
NsI1544
NsI1545
NsI1546
NsI1547
NsI1548
NsI1549
NsI1550
NsI1551
NsI9744
NsI9745
NsI9746
NsI9747
NsI9748
NsI9749
NsI9750
NsI9751
NsI9752
NsI9753
NsI9754
NsI1563
NsI9756
NsI9757
NsI1566
NsI1567
NsI9760
NsI9761
NsI9762
NsI9763
NsI9764
NsI9765
NsI9766
NsI9767
NsI9768
NsI9769
NsI9770
NsI9771
NsI9772
NsI9773
NsI9774
NsI9775
NsI9776
NsI9777
NsI9778
NsI9779
NsI9780
NsI9781
NsI9782
NsI9783
NsI9784
NsI9785
NsI9786
NsI9787
NsI9788
NsI9789
NsI9790
NsI9791
NsI9792
NsI9793
NsI9794
NsI9795
NsI9796
NsI9797
NsI9798
NsI9799
NsI9800
NsI9801
NsI9802
NsI9803
NsI9804
NsI9805
NsI9806
NsI9807
NsI9808
NsI9809
NsI9810
NsI9811
NsI9812
NsI9813
NsI9814
NsI9815
NsI9816
NsI9817
NsI9818
NsI9819
NsI9820
NsI9821
NsI9822
NsI9823
NsI9824
NsI9825
NsI9826
NsI9827
NsI9828
NsI9829
NsI9830
NsI9831
NsI9832
NsI9833
NsI1642
NsI1643
NsI1644
NsI1645
NsI9838
NsI9839
NsI9840
NsI9841
NsI9842
NsI9843
NsI9844
NsI9845
NsI9846
NsI9847
NsI9848
NsI9849
NsI9850
NsI9851
NsI9852
NsI9834
NsI9854
NsI9855
NsI9856
NsI9857
NsI9858
NsI9835
NsI9860
NsI9861
NsI9862
NsI9863
NsI9864
NsI9836
NsI9866
NsI9867
NsI9868
NsI9869
NsI9870
NsI9837
NsI9872
NsI9873
NsI9874
NsI9875
NsI9876
NsI9877
NsI9878
NsI9879
NsI9880
NsI9881
NsI9882
NsI9883
NsI9884
NsI9885
NsI9886
NsI9887
NsI9888
NsI9889
NsI9890
NsI9891
NsI9892
NsI9893
NsI9894
NsI9895
NsI9896
NsI9897
NsI9898
NsI9899
NsI9900
NsI9901
NsI9902
NsI9903
NsI9904
NsI9905
NsI9906
NsI9907
NsI9908
NsI9909
NsI9910
NsI9911
NsI9912
NsI9913
NsI9914
NsI9915
NsI9916
NsI9917
NsI9918
NsI9919
NsI9920
NsI9921
NsI9922
NsI9923
NsI9924
NsI9925
NsI9926
NsI9927
NsI9928
NsI9929
NsI9930
NsI9931
NsI9932
NsI9933
NsI9935
NsI9936
NsI9937
NsI9938
NsI9939
NsI1748
NsI9941
NsI9942
NsI9943
NsI9944
NsI9945
NsI9946
NsI9947
NsI9948
NsI9949
NsI9950
NsI9951
NsI9952
NsI9953
NsI9955
NsI127270
NsI9960
NsI1769
NsI9962
NsI9963
NsI9964
NsI9965
NsI9966
NsI9853
NsI9968
NsI9969
NsI9970
NsI9971
NsI9972
NsI9973
NsI9974
NsI9975
NsI9976
NsI9977
NsI9978
NsI9979
NsI9980
NsI1789
NsI1790
NsI9983
NsI1792
NsI1793
NsI1794
NsI1795
NsI1796
NsI1797
NsI1798
NsI1799
NsI1800
NsI1801
NsI1802
NsI1803
NsI1804
NsI1805
NsI9998
NsI9999
NsI10000
NsI10001
NsI10002
NsI9859
NsI10004
NsI10005
NsI10006
NsI10007
NsI10008
NsI10009
NsI10010
NsI10011
NsI10012
NsI10013
NsI10014
NsI10015
NsI10016
NsI10017
NsI10018
NsI10019
NsI10020
NsI10021
NsI10022
NsI10023
NsI10025
NsI10026
NsI10027
NsI10028
NsI10029
NsI10030
NsI10031
NsI10032
NsI10033
NsI10034
NsI10035
NsI10036
NsI10037
NsI10038
NsI9865
NsI10040
NsI10041
NsI10042
NsI10043
NsI10044
NsI10045
NsI10046
NsI10047
NsI10048
NsI10049
NsI10050
NsI10051
NsI10052
NsI10053
NsI10054
NsI10055
NsI10056
NsI10057
NsI10058
NsI10059
NsI10061
NsI10063
NsI10064
NsI10065
NsI10066
NsI10070
NsI10071
NsI10072
NsI10073
NsI10074
NsI9871
NsI10076
NsI10077
NsI10078
NsI10081
NsI10082
NsI10083
NsI10084
NsI10085
NsI10086
NsI10087
NsI10088
NsI10089
NsI10090
NsI10091
NsI10092
NsI10093
NsI10094
NsI10095
NsI10096
NsI10097
NsI10098
NsI10099
NsI10100
NsI10101
NsI119103
NsI127258
NsI42889
NsI42890
NsI127298
NsI12343
NsI10132
NsI10136
NsI10137
NsI10138
NsI10139
NsI10140
NsI10141
NsI10142
NsI10143
NsI10144
NsI10145
NsI10146
NsI10147
NsI10148
NsI10149
NsI10150
NsI10151
NsI10152
NsI10153
NsI10154
NsI10155
NsI10156
NsI10157
NsI10158
NsI10159
NsI119600
NsI10161
NsI10162
NsI10163
NsI10164
NsI10165
NsI10166
NsI10167
NsI10168
NsI10169
NsI10170
NsI10171
NsI10172
NsI10173
NsI10174
NsI10176
NsI10177
NsI10178
NsI10179
NsI10180
NsI10181
NsI10182
NsI10183
NsI10184
NsI10185
NsI10186
NsI10188
NsI127309
NsI10192
NsI10193
NsI10194
NsI10195
NsI10196
NsI10197
NsI10198
NsI10199
NsI10200
NsI10201
NsI10202
NsI10203
NsI10204
NsI10205
NsI10206
NsI10207
NsI10208
NsI10209
NsI10210
NsI10211
NsI10212
NsI10213
NsI10214
NsI10215
NsI10216
NsI10217
NsI10218
NsI10219
NsI10220
NsI10221
NsI10222
NsI10223
NsI10224
NsI10225
NsI10226
NsI10227
NsI10228
NsI10229
NsI2038
NsI2039
NsI2040
NsI2041
NsI10234
NsI10235
NsI10236
NsI10237
NsI10238
NsI10239
NsI10240
NsI10241
NsI10242
NsI10243
NsI10244
NsI10245
NsI10246
NsI10247
NsI10248
NsI10249
NsI10250
NsI10251
NsI10252
NsI10253
NsI10254
NsI10255
NsI10256
NsI10257
NsI10258
NsI10259
NsI10260
NsI10261
NsI10262
NsI10263
NsI10264
NsI10265
NsI10266
NsI10267
NsI10268
NsI10269
NsI10270
NsI10271
NsI10272
NsI10273
NsI10274
NsI10275
NsI10276
NsI10277
NsI10278
NsI10279
NsI10280
NsI10281
NsI10282
NsI10283
NsI10284
NsI10285
NsI10286
NsI10287
NsI2096
NsI2097
NsI2098
NsI2099
NsI2100
NsI2101
NsI2102
NsI2103
NsI2104
NsI2105
NsI2106
NsI2107
NsI2108
NsI2109
NsI2110
NsI10303
NsI10304
NsI10305
NsI10306
NsI10307
NsI10308
NsI10309
NsI10310
NsI10311
NsI10312
NsI10313
NsI10314
NsI10315
NsI10316
NsI10317
NsI10318
NsI10319
NsI10320
NsI10321
NsI10322
NsI10323
NsI10324
NsI10325
NsI10326
NsI10327
NsI10328
NsI10329
NsI10330
NsI10331
NsI10332
NsI10333
NsI10334
NsI10335
NsI10336
NsI10337
NsI10338
NsI10339
NsI10340
NsI10341
NsI10342
NsI10343
NsI10344
NsI10345
NsI10346
NsI10347
NsI10348
NsI10349
NsI10350
NsI10351
NsI10352
NsI10353
NsI10354
NsI10355
NsI10356
NsI10357
NsI10358
NsI10359
NsI10360
NsI10361
NsI10362
NsI10363
NsI10364
NsI10365
NsI10366
NsI10367
NsI10368
NsI10369
NsI10370
NsI10371
NsI10372
NsI10373
NsI10374
NsI10375
NsI10376
NsI10377
NsI10378
NsI10379
NsI10380
NsI10381
NsI10382
NsI10383
NsI10384
NsI10385
NsI10386
NsI10387
NsI10388
NsI10389
NsI10390
NsI10391
NsI10392
NsI10393
NsI10394
NsI10395
NsI10396
NsI10397
NsI10398
NsI10399
NsI10400
NsI10401
NsI10402
NsI10403
NsI10404
NsI10405
NsI10406
NsI10407
NsI10408
NsI10409
NsI10410
NsI10411
NsI10412
NsI10413
NsI10414
NsI10415
NsI10416
NsI10417
NsI10418
NsI10419
NsI10420
NsI10421
NsI9562
NsI10423
NsI10424
NsI10425
NsI10426
NsI10427
NsI10428
NsI10429
NsI10430
NsI10431
NsI10432
NsI10433
NsI10434
NsI10435
NsI10436
NsI10437
NsI10438
NsI10439
NsI10440
NsI10441
NsI10442
NsI10443
NsI10444
NsI10445
NsI10446
NsI10447
NsI10448
NsI10449
NsI10450
NsI10451
NsI10452
NsI10453
NsI10454
NsI10455
NsI10456
NsI10457
NsI10458
NsI10459
NsI10460
NsI10461
NsI10462
NsI10463
NsI10464
NsI10465
NsI10466
NsI10467
NsI10468
NsI10469
NsI10470
NsI10471
NsI10472
NsI10473
NsI10474
NsI10475
NsI10476
NsI10477
NsI10478
NsI10479
NsI10480
NsI10481
NsI10482
NsI10483
NsI10484
NsI10485
NsI10486
NsI10487
NsI10488
NsI9940
NsI10490
NsI10491
NsI10492
NsI10493
NsI10494
NsI10495
NsI10496
NsI10497
NsI10498
NsI10499
NsI10500
NsI10501
NsI10502
NsI10503
NsI10504
NsI10505
NsI10506
NsI10507
NsI10508
NsI10509
NsI10510
NsI10511
NsI10512
NsI10513
NsI10514
NsI10515
NsI10516
NsI10517
NsI10518
NsI10519
NsI10520
NsI10521
NsI10522
NsI10523
NsI10524
NsI10525
NsI10526
NsI10527
NsI10528
NsI10529
NsI10530
NsI10531
NsI10532
NsI10533
NsI10534
NsI10535
NsI10536
NsI10537
NsI10538
NsI10539
NsI10540
NsI10541
NsI10542
NsI10543
NsI10544
NsI10545
NsI10546
NsI10547
NsI10548
NsI10549
NsI10550
NsI10551
NsI10552
NsI10553
NsI10554
NsI10555
NsI10556
NsI10557
NsI10558
NsI10559
NsI10560
NsI10561
NsI10562
NsI10563
NsI10564
NsI10565
NsI10566
NsI10567
NsI10568
NsI10569
NsI10570
NsI10571
NsI9563
NsI10573
NsI10574
NsI10575
NsI10576
NsI10577
NsI10578
NsI10579
NsI10580
NsI10581
NsI10582
NsI10583
NsI10584
NsI10585
NsI10586
NsI10587
NsI10588
NsI10589
NsI10590
NsI10591
NsI10592
NsI10593
NsI10594
NsI10595
NsI2404
NsI2405
NsI10598
NsI10599
NsI10600
NsI10601
NsI10602
NsI10603
NsI10604
NsI10605
NsI10606
NsI10607
NsI2416
NsI10609
NsI10610
NsI10611
NsI10612
NsI10613
NsI10614
NsI9961
NsI10616
NsI10617
NsI10618
NsI10619
NsI10620
NsI10621
NsI10622
NsI10623
NsI10624
NsI10625
NsI10626
NsI10627
NsI10628
NsI10629
NsI10630
NsI10631
NsI10632
NsI10633
NsI10634
NsI10635
NsI10636
NsI10637
NsI10638
NsI10639
NsI10640
NsI10641
NsI10642
NsI10643
NsI10644
NsI10645
NsI10646
NsI10647
NsI10648
NsI10649
NsI10650
NsI9967
NsI10652
NsI10653
NsI10654
NsI10655
NsI10656
NsI10657
NsI10658
NsI10659
NsI10660
NsI10661
NsI10662
NsI10663
NsI10664
NsI10665
NsI10666
NsI10667
NsI10668
NsI10669
NsI10670
NsI10671
NsI10672
NsI10673
NsI10674
NsI10675
NsI10676
NsI10677
NsI10678
NsI10679
NsI10680
NsI10681
NsI10682
NsI10683
NsI10684
NsI10685
NsI10686
NsI10687
NsI10688
NsI10689
NsI10690
NsI10691
NsI10692
NsI10693
NsI10694
NsI10695
NsI10696
NsI10697
NsI10698
NsI10699
NsI10700
NsI10701
NsI10702
NsI10703
NsI10704
NsI10705
NsI10706
NsI10707
NsI10708
NsI10709
NsI10710
NsI10711
NsI10712
NsI10713
NsI10714
NsI10715
NsI10716
NsI10717
NsI10718
NsI10719
NsI10720
NsI10721
NsI9564
NsI10723
NsI10724
NsI10725
NsI10726
NsI10727
NsI10728
NsI10729
NsI10730
NsI10731
NsI10732
NsI10733
NsI10734
NsI9981
NsI10736
NsI10737
NsI2546
NsI2547
NsI10740
NsI9982
NsI10742
NsI10743
NsI10744
NsI10745
NsI2554
NsI2555
NsI10748
NsI10749
NsI10750
NsI10751
NsI10752
NsI10753
NsI10754
NsI10755
NsI10756
NsI10757
NsI10758
NsI9985
NsI10760
NsI10761
NsI10762
NsI10763
NsI10764
NsI9986
NsI10766
NsI10767
NsI10768
NsI10769
NsI10770
NsI9987
NsI10772
NsI10773
NsI10774
NsI10775
NsI10776
NsI9988
NsI10778
NsI10779
NsI10780
NsI10781
NsI10782
NsI10783
NsI10784
NsI10785
NsI10786
NsI10787
NsI10788
NsI9990
NsI10790
NsI10791
NsI10792
NsI10793
NsI10794
NsI9991
NsI10796
NsI10797
NsI10798
NsI10799
NsI10800
NsI9992
NsI10802
NsI10803
NsI10804
NsI10805
NsI10806
NsI9993
NsI10808
NsI10809
NsI10810
NsI10811
NsI10812
NsI10813
NsI10814
NsI10815
NsI10816
NsI10817
NsI10818
NsI10819
NsI10820
NsI10821
NsI10822
NsI10823
NsI10824
NsI9996
NsI10826
NsI10827
NsI10828
NsI10829
NsI10830
NsI9997
NsI10832
NsI10833
NsI10834
NsI10835
NsI10836
NsI10837
NsI10838
NsI10839
NsI10840
NsI10841
NsI10842
NsI10843
NsI10844
NsI10845
NsI10846
NsI10847
NsI10848
NsI10849
NsI10850
NsI10851
NsI10852
NsI10853
NsI10854
NsI10855
NsI10856
NsI10857
NsI10858
NsI10859
NsI10860
NsI10861
NsI10862
NsI10863
NsI10864
NsI10865
NsI10866
NsI10003
NsI10868
NsI10869
NsI10870
NsI10871
NsI9565
NsI10873
NsI10874
NsI10875
NsI10876
NsI10877
NsI10878
NsI10879
NsI10880
NsI10881
NsI10882
NsI10883
NsI10884
NsI10885
NsI10886
NsI10887
NsI10888
NsI10889
NsI10890
NsI10891
NsI10892
NsI10893
NsI10894
NsI10895
NsI10896
NsI10897
NsI10898
NsI10899
NsI10900
NsI10901
NsI10902
NsI10903
NsI10904
NsI10905
NsI10906
NsI10907
NsI10908
NsI10909
NsI10910
NsI10911
NsI10912
NsI10913
NsI10914
NsI10915
NsI10916
NsI10917
NsI10918
NsI10919
NsI10920
NsI10921
NsI10922
NsI10923
NsI10924
NsI10925
NsI10926
NsI10927
NsI10928
NsI10929
NsI10930
NsI10931
NsI10932
NsI10933
NsI10934
NsI10935
NsI10936
NsI10937
NsI10938
NsI10939
NsI10940
NsI10941
NsI10942
NsI10943
NsI10944
NsI10945
NsI10946
NsI10947
NsI10948
NsI10949
NsI10950
NsI10951
NsI10952
NsI10953
NsI10954
NsI10955
NsI10956
NsI10957
NsI10958
NsI10959
NsI10960
NsI10961
NsI10962
NsI10963
NsI10964
NsI10965
NsI10966
NsI10967
NsI10968
NsI10969
NsI10970
NsI10971
NsI10972
NsI10973
NsI10974
NsI10975
NsI10976
NsI10977
NsI10978
NsI10979
NsI10980
NsI10981
NsI10982
NsI10983
NsI10984
NsI10985
NsI10986
NsI10987
NsI10988
NsI10989
NsI10990
NsI10991
NsI10992
NsI2801
NsI10994
NsI10995
NsI10996
NsI10997
NsI10998
NsI10999
NsI11000
NsI11001
NsI11002
NsI11003
NsI11004
NsI11005
NsI11006
NsI11007
NsI11008
NsI11009
NsI11010
NsI11011
NsI11012
NsI11013
NsI11014
NsI11015
NsI11016
NsI11017
NsI11018
NsI11019
NsI11020
NsI11021
NsI9566
NsI11023
NsI11024
NsI11025
NsI11026
NsI11027
NsI11028
NsI11029
NsI11030
NsI11031
NsI11032
NsI11033
NsI11034
NsI11035
NsI11036
NsI11037
NsI11038
NsI11039
NsI11040
NsI11041
NsI11042
NsI11043
NsI11044
NsI11045
NsI11046
NsI11047
NsI11048
NsI11049
NsI11050
NsI11051
NsI11052
NsI11053
NsI11054
NsI11055
NsI11056
NsI11057
NsI11058
NsI11059
NsI11060
NsI11061
NsI11062
NsI11063
NsI11064
NsI11065
NsI11066
NsI11067
NsI11068
NsI11069
NsI11070
NsI11071
NsI11072
NsI11073
NsI11074
NsI11075
NsI11076
NsI11077
NsI11078
NsI11079
NsI11080
NsI11081
NsI11082
NsI10039
NsI11084
NsI66018
NsI119558
NsI11088
NsI11089
NsI11090
NsI11091
NsI11092
NsI11093
NsI11094
NsI11095
NsI11096
NsI11097
NsI66021
NsI66022
NsI66023
NsI119576
NsI2928
NsI66024
NsI66025
NsI127065
NsI66026
NsI43743
NsI127010
NsI66027
NsI66028
NsI119552
NsI119577
NsI66029
NsI66030
NsI127488
NsI66031
NsI66032
NsI9567
NsI66033
NsI119578
NsI66034
NsI127081
NsI8283
NsI66035
NsI66036
NsI119225
NsI127509
NsI66037
NsI66038
NsI119579
NsI119607
NsI66039
NsI66040
NsI66041
NsI13261
NsI66042
NsI66043
NsI119580
NsI66044
NsI44011
NsI3059
NsI3060
NsI3061
NsI3062
NsI3063
NsI3064
NsI3065
NsI3066
NsI120597
NsI127518
NsI119296
NsI127027
NsI119581
NsI119297
NsI119298
NsI119299
NsI119300
NsI119301
NsI119553
NsI10075
NsI119302
NsI127250
NsI119303
NsI119304
NsI119305
NsI119231
NsI119306
NsI119307
NsI127082
NsI119308
NsI42165
NsI119309
NsI119310
NsI119311
NsI119584
NsI119608
NsI119312
NsI119313
NsI119314
NsI119315
NsI119316
NsI119585
NsI3199
NsI65847
NsI118899
NsI119318
NsI119613
NsI119319
NsI119320
NsI119321
NsI119586
NsI119322
NsI119323
NsI67671
NsI119324
NsI119325
NsI119063
NsI119554
NsI119587
NsI127519
NsI127520
NsI119253
NsI127522
NsI127523
NsI119588
NsI119336
NsI127524
NsI65850
NsI127525
NsI11493
NsI11494
NsI11495
NsI11496
NsI11497
NsI11498
NsI127527
NsI3313
NsI3314
NsI119589
NsI119609
NsI8745
NsI127064
NsI11513
NsI11514
NsI11515
NsI11516
NsI119338
NsI11518
NsI11519
NsI11022
NsI119339
NsI42611
NsI119317
NsI119341
NsI119590
NsI119342
NsI8751
NsI118944
NsI119045
NsI119345
NsI119346
NsI127011
NsI119591
NsI119347
NsI65853
NsI127262
NsI119348
NsI8757
NsI119350
NsI119351
NsI119555
NsI119592
NsI119352
NsI119353
NsI127513
NsI119354
NsI119355
NsI119356
NsI119593
NsI119357
NsI119358
NsI127504
NsI9662
NsI3449
NsI119359
NsI119228
NsI119360
NsI119361
NsI119594
NsI119610
NsI127554
NsI127110
NsI127555
NsI127505
NsI119099
NsI127556
NsI118795
NsI119365
NsI119010
NsI127248
NsI127558
NsI127553
NsI119595
NsI127559
NsI119096
NsI127560
NsI127506
NsI9664
NsI19904
NsI19905
NsI19906
NsI19907
NsI19908
NsI19909
NsI19910
NsI19911
NsI19912
NsI19913
NsI19914
NsI19915
NsI19916
NsI19917
NsI19918
NsI19919
NsI19920
NsI19921
NsI19922
NsI19923
NsI19924
NsI19925
NsI19926
NsI19927
NsI19928
NsI19929
NsI19930
NsI19931
NsI19932
NsI19933
NsI19934
NsI19935
NsI19936
NsI19937
NsI19938
NsI19939
NsI19940
NsI19941
NsI19942
NsI19943
NsI19944
NsI19945
NsI19946
NsI19947
NsI19948
NsI19949
NsI19950
NsI19951
NsI19952
NsI19953
NsI19954
NsI19955
NsI3572
NsI19957
NsI19958
NsI19959
NsI19960
NsI19961
NsI19962
NsI19963
NsI19964
NsI19965
NsI19966
NsI19967
NsI11776
NsI11777
NsI11778
NsI11779
NsI11780
NsI11781
NsI11782
NsI11783
NsI11784
NsI11785
NsI11786
NsI11787
NsI11788
NsI11789
NsI9667
NsI11791
NsI11792
NsI11793
NsI11794
NsI11795
NsI11796
NsI11797
NsI11798
NsI11799
NsI11800
NsI11801
NsI11802
NsI11803
NsI11804
NsI11805
NsI11806
NsI11807
NsI11808
NsI11809
NsI11810
NsI11811
NsI11812
NsI11813
NsI11814
NsI11815
NsI11816
NsI11817
NsI11818
NsI11819
NsI11820
NsI11821
NsI11822
NsI11824
NsI11825
NsI119326
NsI127526
NsI127249
NsI119559
NsI3647
NsI127511
NsI3663
NsI127306
NsI118793
NsI3674
NsI3675
NsI119601
NsI127512
NsI9670
NsI127557
NsI119557
NsI119602
NsI11904
NsI11905
NsI11906
NsI11907
NsI11908
NsI11909
NsI11910
NsI11911
NsI11912
NsI11913
NsI11914
NsI11915
NsI11916
NsI11917
NsI11918
NsI11919
NsI11920
NsI11921
NsI11922
NsI11923
NsI11924
NsI11925
NsI11926
NsI11927
NsI11928
NsI11929
NsI11931
NsI11932
NsI11933
NsI11934
NsI11935
NsI11936
NsI11937
NsI11938
NsI11939
NsI11940
NsI11941
NsI11942
NsI11943
NsI11944
NsI11945
NsI11946
NsI11947
NsI11948
NsI11949
NsI11950
NsI11951
NsI11952
NsI11953
NsI11954
NsI11955
NsI11956
NsI11957
NsI11958
NsI11959
NsI11960
NsI11961
NsI11962
NsI11963
NsI11964
NsI11965
NsI11966
NsI11967
NsI11968
NsI11969
NsI11970
NsI11971
NsI11972
NsI11973
NsI11974
NsI11975
NsI11976
NsI11977
NsI11978
NsI11979
NsI11980
NsI11981
NsI11982
NsI11983
NsI11984
NsI11985
NsI11986
NsI11987
NsI11988
NsI11989
NsI11990
NsI11991
NsI11992
NsI11993
NsI11994
NsI11995
NsI11996
NsI11997
NsI11998
NsI11999
NsI12000
NsI12001
NsI12002
NsI12003
NsI12004
NsI12005
NsI12006
NsI12007
NsI12008
NsI12009
NsI12010
NsI12011
NsI12012
NsI12013
NsI12014
NsI12015
NsI12016
NsI12017
NsI12018
NsI12019
NsI127517
NsI118788
NsI12032
NsI3841
NsI3842
NsI3843
NsI3844
NsI3845
NsI3846
NsI3847
NsI3848
NsI3849
NsI3850
NsI3851
NsI3852
NsI3853
NsI3854
NsI3855
NsI3856
NsI3857
NsI3858
NsI3859
NsI3860
NsI3861
NsI3862
NsI3863
NsI12056
NsI12057
NsI3866
NsI3867
NsI3868
NsI3869
NsI3870
NsI3871
NsI12064
NsI12065
NsI12066
NsI12067
NsI12068
NsI12069
NsI12070
NsI12071
NsI12072
NsI12073
NsI12074
NsI12075
NsI12076
NsI12077
NsI12078
NsI12079
NsI12080
NsI12081
NsI12082
NsI12083
NsI3892
NsI12085
NsI3894
NsI12087
NsI3896
NsI12089
NsI3898
NsI3899
NsI3900
NsI3901
NsI12094
NsI12095
NsI12096
NsI12097
NsI12098
NsI12099
NsI12100
NsI12101
NsI12102
NsI12103
NsI12104
NsI12105
NsI12106
NsI12107
NsI12108
NsI12109
NsI12110
NsI12111
NsI12112
NsI12113
NsI12114
NsI12115
NsI12116
NsI12117
NsI12118
NsI12119
NsI12120
NsI12121
NsI12122
NsI12123
NsI12124
NsI12125
NsI12126
NsI12127
NsI12128
NsI12129
NsI12130
NsI12131
NsI12132
NsI12133
NsI12134
NsI12135
NsI12136
NsI12137
NsI12138
NsI12139
NsI12140
NsI12141
NsI12142
NsI12143
NsI12144
NsI12145
NsI12146
NsI8315
NsI12148
NsI12149
NsI12150
NsI12151
NsI12152
NsI12153
NsI12154
NsI12155
NsI12156
NsI12157
NsI12158
NsI12159
NsI12160
NsI12161
NsI12162
NsI12163
NsI12164
NsI3973
NsI12166
NsI12167
NsI12168
NsI12169
NsI12170
NsI12171
NsI12172
NsI12173
NsI12174
NsI12175
NsI12176
NsI8316
NsI12178
NsI12179
NsI12180
NsI12181
NsI12182
NsI12183
NsI12184
NsI12185
NsI12186
NsI12187
NsI12188
NsI12189
NsI12190
NsI12191
NsI12192
NsI12193
NsI12194
NsI12195
NsI12196
NsI12197
NsI12198
NsI12199
NsI12200
NsI12201
NsI12202
NsI12203
NsI12204
NsI12205
NsI12206
NsI8317
NsI12208
NsI12209
NsI12210
NsI12211
NsI12212
NsI12213
NsI12214
NsI12215
NsI12216
NsI12217
NsI12218
NsI12219
NsI12220
NsI12221
NsI4030
NsI4031
NsI4032
NsI4033
NsI4034
NsI4035
NsI4036
NsI4037
NsI12230
NsI4039
NsI4040
NsI4041
NsI4042
NsI4043
NsI4044
NsI8318
NsI4046
NsI4047
NsI4048
NsI4049
NsI4050
NsI4051
NsI4052
NsI4053
NsI4054
NsI4055
NsI4056
NsI119232
NsI126979
NsI12060
NsI119614
NsI127252
NsI66016
NsI118796
NsI12272
NsI12273
NsI12274
NsI12275
NsI12276
NsI12277
NsI12278
NsI12279
NsI12280
NsI12281
NsI12282
NsI12283
NsI126980
NsI118784
NsI12289
NsI12290
NsI12291
NsI12292
NsI118789
NsI118790
NsI118791
NsI12296
NsI12297
NsI12298
NsI12299
NsI12300
NsI12301
NsI12302
NsI12303
NsI12304
NsI12305
NsI10993
NsI12307
NsI12308
NsI12309
NsI12310
NsI12311
NsI12312
NsI10230
NsI12314
NsI12315
NsI12316
NsI12317
NsI12318
NsI12319
NsI12320
NsI118817
NsI118818
NsI118819
NsI118820
NsI118821
NsI118822
NsI118823
NsI118824
NsI118825
NsI118798
NsI118827
NsI118828
NsI118829
NsI118830
NsI118831
NsI12336
NsI118833
NsI118834
NsI118835
NsI118836
NsI118837
NsI12342
NsI10231
NsI118840
NsI118841
NsI118842
NsI118843
NsI118844
NsI12349
NsI12350
NsI12351
NsI118848
NsI118849
NsI118850
NsI118851
NsI118852
NsI118853
NsI118854
NsI118855
NsI118799
NsI118857
NsI4170
NsI4171
NsI4172
NsI4173
NsI4174
NsI4175
NsI118864
NsI118865
NsI43127
NsI118867
NsI118868
NsI10232
NsI118870
NsI118871
NsI118872
NsI118873
NsI118874
NsI118875
NsI118876
NsI118877
NsI118878
NsI118879
NsI118880
NsI118881
NsI118882
NsI118883
NsI118884
NsI118885
NsI118886
NsI118887
NsI118888
NsI118889
NsI118890
NsI118891
NsI118892
NsI118893
NsI118894
NsI118895
NsI118896
NsI118897
NsI118898
NsI10233
NsI118900
NsI118901
NsI118902
NsI118903
NsI118904
NsI118905
NsI118906
NsI118907
NsI118908
NsI118909
NsI118910
NsI118911
NsI118912
NsI118913
NsI118914
NsI118915
NsI118916
NsI118917
NsI118918
NsI118919
NsI118920
NsI118921
NsI118922
NsI118923
NsI118924
NsI8898
NsI118926
NsI118927
NsI118928
NsI118929
NsI118930
NsI707
NsI118932
NsI118933
NsI118934
NsI118935
NsI118936
NsI708
NsI118938
NsI12443
NsI12444
NsI118941
NsI4254
NsI4255
NsI12448
NsI118945
NsI118802
NsI118947
NsI118948
NsI118949
NsI118950
NsI118951
NsI118952
NsI118953
NsI118954
NsI118955
NsI118956
NsI118957
NsI118958
NsI118959
NsI118960
NsI118797
NsI118962
NsI118963
NsI118964
NsI118965
NsI118966
NsI118967
NsI118968
NsI118969
NsI118970
NsI69819
NsI69820
NsI118973
NsI69822
NsI69823
NsI69824
NsI69825
NsI118978
NsI118979
NsI118980
NsI118981
NsI118982
NsI118983
NsI118984
NsI118985
NsI118986
NsI118987
NsI118988
NsI118989
NsI118990
NsI118991
NsI118992
NsI118993
NsI118994
NsI118995
NsI118996
NsI118997
NsI118998
NsI118999
NsI119000
NsI119001
NsI119002
NsI119003
NsI119004
NsI119005
NsI119006
NsI119007
NsI119008
NsI119009
NsI118961
NsI119011
NsI119012
NsI119013
NsI119014
NsI119015
NsI119016
NsI119017
NsI119018
NsI119019
NsI119020
NsI722
NsI119022
NsI119023
NsI119024
NsI43048
NsI119026
NsI723
NsI119028
NsI119029
NsI43049
NsI724
NsI4347
NsI43050
NsI725
NsI119040
NsI119041
NsI119042
NsI43051
NsI119044
NsI8918
NsI119046
NsI119047
NsI119048
NsI119049
NsI119050
NsI727
NsI119052
NsI119053
NsI119054
NsI119055
NsI119056
NsI728
NsI119058
NsI119059
NsI119060
NsI119061
NsI119062
NsI8921
NsI119064
NsI119065
NsI119066
NsI119067
NsI119068
NsI730
NsI119070
NsI119071
NsI119072
NsI10288
NsI119074
NsI8923
NsI119076
NsI119077
NsI119078
NsI10289
NsI127272
NsI8924
NsI119082
NsI119083
NsI119084
NsI10290
NsI119086
NsI733
NsI119088
NsI119089
NsI119090
NsI10291
NsI119092
NsI734
NsI119094
NsI119095
NsI118807
NsI10292
NsI119098
NsI8927
NsI119100
NsI119101
NsI119102
NsI10293
NsI119104
NsI119105
NsI119106
NsI119107
NsI119108
NsI10294
NsI119110
NsI119111
NsI119112
NsI119113
NsI119114
NsI10295
NsI119116
NsI119117
NsI119118
NsI119119
NsI119120
NsI10296
NsI119122
NsI119123
NsI119124
NsI119125
NsI119126
NsI10297
NsI119128
NsI119129
NsI119130
NsI119131
NsI119132
NsI10298
NsI119134
NsI8933
NsI119136
NsI119137
NsI119138
NsI10299
NsI119140
NsI742
NsI126992
NsI119562
NsI10300
NsI119146
NsI743
NsI119148
NsI127265
NsI10301
NsI744
NsI118809
NsI10302
NsI745
NsI119097
NsI127353
NsI127355
NsI127356
NsI746
NsI127359
NsI747
NsI119172
NsI119344
NsI127370
NsI127266
NsI119180
NsI119181
NsI119182
NsI749
NsI12688
NsI12689
NsI119186
NsI119187
NsI119188
NsI119189
NsI12694
NsI12695
NsI12696
NsI12697
NsI12698
NsI8943
NsI12700
NsI12701
NsI12702
NsI12703
NsI119200
NsI752
NsI119202
NsI119203
NsI119204
NsI119205
NsI119206
NsI753
NsI119208
NsI119209
NsI119617
NsI754
NsI119214
NsI119215
NsI118811
NsI119217
NsI119218
NsI8947
NsI119220
NsI119221
NsI119222
NsI119223
NsI119224
NsI756
NsI119226
NsI119227
NsI12699
NsI119229
NsI119230
NsI8949
NsI12736
NsI12737
NsI12738
NsI12739
NsI12740
NsI758
NsI12742
NsI12743
NsI12744
NsI12745
NsI12746
NsI8951
NsI12748
NsI12749
NsI12750
NsI12751
NsI12752
NsI8952
NsI12754
NsI12755
NsI12756
NsI12757
NsI12758
NsI8953
NsI12760
NsI12761
NsI12762
NsI12763
NsI12764
NsI8954
NsI12766
NsI12767
NsI12768
NsI12769
NsI12770
NsI8955
NsI127269
NsI764
NsI127077
NsI118813
NsI8957
NsI766
NsI8959
NsI126997
NsI119563
NsI12800
NsI12801
NsI12802
NsI12803
NsI12804
NsI12805
NsI12806
NsI12807
NsI12808
NsI12809
NsI12810
NsI12811
NsI12812
NsI12813
NsI12814
NsI12815
NsI12816
NsI12817
NsI12818
NsI12819
NsI12820
NsI12821
NsI12822
NsI12823
NsI12824
NsI12825
NsI12826
NsI12827
NsI12828
NsI12829
NsI12830
NsI119327
NsI119328
NsI119329
NsI119330
NsI119331
NsI119332
NsI119333
NsI119334
NsI119335
NsI118815
NsI119337
NsI12842
NsI12843
NsI12844
NsI12845
NsI12846
NsI12847
NsI12848
NsI12849
NsI12850
NsI12851
NsI12852
NsI12853
NsI12854
NsI12855
NsI12856
NsI12857
NsI12858
NsI12859
NsI12860
NsI12861
NsI12862
NsI12863
NsI12864
NsI12865
NsI12866
NsI12867
NsI12868
NsI12869
NsI12870
NsI12871
NsI12872
NsI12873
NsI12874
NsI12875
NsI12876
NsI12877
NsI12878
NsI12879
NsI12880
NsI127256
NsI119566
NsI127000
NsI119635
NsI119567
NsI127273
NsI66019
NsI12896
NsI12897
NsI12898
NsI12899
NsI12900
NsI12901
NsI12902
NsI12903
NsI12904
NsI12905
NsI12906
NsI12907
NsI12908
NsI12909
NsI12910
NsI12911
NsI12912
NsI12913
NsI12914
NsI12915
NsI12916
NsI12917
NsI12918
NsI12919
NsI12920
NsI12921
NsI12922
NsI12923
NsI12924
NsI12925
NsI12926
NsI12927
NsI119574
NsI119091
NsI12938
NsI12939
NsI12940
NsI12941
NsI12942
NsI12943
NsI12944
NsI12945
NsI12946
NsI12947
NsI12948
NsI12949
NsI12950
NsI12951
NsI12952
NsI12953
NsI12954
NsI12955
NsI12956
NsI12957
NsI12958
NsI12959
NsI12960
NsI12961
NsI12962
NsI12963
NsI12964
NsI12965
NsI12966
NsI12967
NsI12968
NsI12969
NsI12970
NsI12971
NsI12972
NsI12973
NsI12974
NsI12975
NsI12976
NsI119582
NsI127002
NsI127093
NsI43124
NsI119583
NsI43125
NsI12992
NsI12993
NsI12994
NsI12995
NsI12996
NsI12997
NsI12998
NsI12999
NsI13000
NsI13001
NsI13002
NsI13003
NsI13004
NsI13005
NsI13006
NsI13007
NsI13008
NsI13009
NsI13010
NsI13011
NsI13012
NsI13013
NsI13014
NsI13015
NsI13016
NsI13017
NsI13018
NsI13019
NsI13020
NsI13021
NsI13022
NsI13023
NsI13024
NsI13025
NsI13026
NsI13027
NsI13028
NsI13029
NsI13030
NsI13031
NsI13032
NsI13033
NsI13034
NsI13035
NsI13036
NsI13037
NsI13038
NsI13039
NsI13040
NsI13041
NsI13042
NsI13043
NsI13044
NsI13045
NsI13046
NsI13047
NsI13048
NsI13049
NsI13050
NsI13051
NsI13052
NsI13053
NsI13054
NsI13056
NsI13057
NsI13058
NsI13059
NsI13060
NsI13061
NsI13062
NsI13063
NsI13064
NsI13065
NsI13066
NsI13067
NsI13068
NsI13069
NsI13070
NsI13071
NsI13072
NsI13073
NsI13074
NsI13075
NsI13076
NsI13077
NsI13078
NsI13079
NsI13080
NsI13081
NsI13082
NsI13083
NsI13084
NsI13085
NsI13086
NsI13087
NsI13088
NsI13089
NsI13090
NsI13091
NsI13092
NsI13093
NsI13094
NsI13095
NsI13096
NsI13097
NsI13098
NsI13099
NsI13100
NsI13101
NsI13102
NsI13103
NsI13104
NsI13105
NsI13106
NsI13107
NsI13108
NsI13109
NsI13110
NsI13111
NsI13112
NsI13113
NsI13114
NsI13115
NsI13116
NsI13117
NsI13118
NsI13119
NsI13120
NsI13121
NsI13122
NsI13123
NsI13124
NsI13125
NsI13126
NsI13127
NsI13128
NsI13129
NsI13130
NsI13131
NsI13132
NsI13133
NsI13134
NsI13135
NsI13136
NsI13137
NsI13138
NsI13139
NsI13140
NsI13141
NsI13142
NsI13143
NsI13144
NsI13145
NsI13146
NsI13147
NsI13148
NsI13149
NsI13150
NsI13151
NsI4960
NsI4961
NsI4962
NsI4963
NsI4964
NsI4965
NsI4966
NsI4967
NsI4968
NsI13161
NsI13162
NsI13163
NsI13164
NsI13165
NsI13166
NsI13167
NsI13168
NsI13169
NsI13170
NsI13171
NsI13172
NsI13173
NsI13174
NsI13175
NsI13176
NsI13177
NsI13178
NsI13179
NsI13180
NsI13181
NsI13182
NsI13183
NsI13184
NsI13185
NsI13186
NsI12090
NsI13188
NsI13189
NsI13190
NsI13191
NsI13192
NsI13193
NsI13194
NsI13195
NsI13196
NsI13197
NsI13198
NsI13199
NsI5008
NsI5009
NsI5010
NsI5011
NsI5012
NsI5013
NsI5014
NsI5015
NsI5016
NsI5017
NsI13210
NsI13211
NsI13212
NsI13213
NsI13214
NsI13215
NsI13216
NsI13217
NsI13218
NsI13219
NsI13220
NsI13221
NsI13222
NsI13223
NsI13224
NsI13225
NsI13226
NsI13227
NsI13228
NsI13229
NsI13230
NsI9715
NsI13232
NsI13233
NsI13234
NsI13235
NsI13236
NsI13237
NsI13238
NsI13239
NsI13240
NsI13241
NsI13242
NsI13243
NsI13244
NsI13245
NsI13246
NsI13247
NsI13248
NsI13249
NsI13250
NsI13251
NsI13252
NsI13253
NsI13254
NsI13255
NsI13256
NsI13257
NsI13258
NsI13259
NsI13260
NsI9716
NsI13262
NsI13263
NsI13264
NsI13265
NsI13266
NsI13267
NsI13268
NsI13269
NsI13270
NsI13271
NsI13272
NsI13273
NsI13274
NsI13275
NsI13276
NsI13277
NsI13278
NsI13279
NsI13280
NsI13281
NsI13282
NsI13283
NsI13284
NsI13285
NsI13286
NsI13287
NsI13288
NsI13289
NsI13290
NsI13291
NsI13292
NsI13293
NsI13294
NsI13295
NsI13296
NsI13297
NsI13298
NsI13299
NsI13300
NsI13301
NsI13302
NsI13303
NsI13304
NsI13305
NsI13306
NsI13307
NsI13308
NsI13309
NsI13310
NsI13311
NsI5120
NsI119621
NsI119638
NsI119021
NsI127259
NsI120629
NsI12091
NsI127117
NsI118946
NsI118832
NsI11083
NsI127308
NsI8901
NsI118803
NsI127532
NsI13152
NsI10422
NsI13153
NsI13154
NsI13155
NsI11790
NsI13156
NsI13157
NsI13158
NsI13159
NsI12037
NsI13160
NsI127018
NsI119349
NsI65915
NsI119240
NsI126987
NsI127019
NsI127079
NsI119622
NsI119109
NsI127007
NsI127260
NsI12092
NsI127293
NsI119343
NsI9077
NsI127533
NsI43462
NsI43214
NsI43215
NsI119568
NsI127295
NsI9086
NsI127012
NsI118839
NsI127097
NsI13187
NsI119261
NsI9092
NsI119605
NsI119234
NsI9093
NsI126988
NsI127024
NsI9095
NsI119623
NsI65921
NsI126981
NsI65077
NsI127261
NsI127025
NsI66020
NsI65940
NsI119115
NsI13200
NsI65083
NsI127534
NsI13201
NsI43463
NsI118794
NsI13202
NsI8366
NsI13203
NsI13204
NsI13205
NsI119569
NsI119237
NsI13206
NsI13207
NsI13208
NsI13209
NsI42738
NsI127028
NsI127003
NsI119069
NsI118845
NsI119242
NsI42739
NsI126989
NsI66463
NsI127029
NsI127514
NsI127302
NsI119624
NsI127254
NsI118846
NsI43256
NsI42740
NsI10489
NsI119560
NsI127030
NsI43258
NsI118847
NsI9734
NsI42741
NsI127031
NsI127535
NsI119027
NsI119121
NsI42742
NsI119570
NsI13231
NsI126998
NsI127516
NsI118787
NsI42743
NsI127099
NsI127507
NsI126990
NsI127034
NsI127276
NsI119239
NsI127307
NsI119625
NsI119025
NsI5741
NsI5742
NsI127035
NsI119612
NsI9739
NsI127531
NsI127036
NsI127536
NsI5787
NsI5788
NsI9740
NsI12741
NsI9159
NsI119571
NsI127310
NsI127263
NsI67871
NsI120513
NsI119127
NsI127038
NsI9165
NsI127100
NsI120539
NsI66512
NsI126991
NsI127039
NsI5867
NsI5868
NsI5869
NsI119191
NsI65936
NsI9171
NsI127373
NsI118856
NsI120571
NsI127119
NsI127040
NsI65937
NsI119619
NsI42622
NsI9177
NsI43311
NsI127041
NsI65938
NsI118858
NsI5941
NsI5942
NsI127253
NsI9183
NsI42752
NsI119573
NsI119572
NsI127042
NsI119081
NsI65939
NsI42757
NsI120655
NsI118859
NsI42753
NsI12747
NsI9189
NsI127043
NsI127101
NsI43126
NsI120687
NsI118860
NsI119133
NsI119245
NsI42754
NsI67903
NsI127044
NsI127080
NsI119627
NsI65941
NsI120713
NsI119093
NsI118861
NsI42755
NsI127045
NsI65942
NsI120745
NsI119616
NsI118862
NsI119135
NsI42756
NsI127046
NsI127047
NsI127091
NsI127319
NsI120771
NsI65943
NsI10572
NsI118863
NsI6100
NsI6101
NsI6102
NsI6104
NsI6105
NsI6106
NsI6107
NsI127118
NsI65944
NsI42758
NsI127048
NsI127102
NsI6144
NsI6145
NsI6146
NsI6147
NsI6148
NsI6149
NsI6150
NsI6151
NsI6152
NsI6153
NsI6154
NsI119235
NsI119246
NsI42759
NsI126993
NsI12753
NsI9219
NsI127049
NsI119599
NsI119628
NsI65946
NsI126982
NsI118792
NsI118866
NsI119606
NsI119139
NsI42760
NsI127050
NsI9225
NsI43359
NsI65947
NsI65945
NsI42761
NsI127051
NsI10596
NsI10597
NsI9755
NsI42762
NsI127521
NsI127052
NsI118869
NsI42763
NsI127053
NsI127103
NsI10608
NsI9243
NsI42764
NsI126994
NsI127054
NsI127327
NsI43310
NsI127255
NsI9758
NsI42765
NsI12759
NsI9249
NsI127055
NsI10615
NsI9759
NsI42766
NsI127056
NsI42767
NsI119575
NsI127057
NsI68409
NsI119147
NsI42768
NsI127058
NsI68410
NsI42769
NsI126995
NsI6464
NsI127059
NsI6468
NsI6469
NsI127268
NsI68411
NsI19956
NsI42770
NsI127060
NsI127528
NsI68412
NsI42771
NsI12765
NsI118812
NsI127061
NsI127508
NsI126977
NsI68413
NsI42772
NsI127062
NsI119085
NsI9285
NsI10651
NsI42773
NsI127063
NsI68415
NsI127105
NsI119249
NsI127037
NsI42774
NsI126996
NsI43062
NsI6622
NsI6623
NsI6624
NsI6625
NsI6626
NsI6627
NsI6628
NsI6629
NsI6630
NsI6631
NsI6632
NsI6633
NsI6634
NsI6635
NsI6636
NsI6637
NsI6638
NsI6639
NsI6640
NsI6641
NsI6642
NsI6643
NsI6644
NsI6645
NsI6646
NsI6647
NsI6648
NsI6649
NsI6650
NsI6651
NsI6652
NsI6653
NsI6654
NsI6655
NsI12033
NsI12034
NsI12035
NsI127066
NsI12036
NsI6686
NsI6687
NsI12038
NsI12039
NsI12771
NsI12040
NsI127067
NsI12041
NsI12042
NsI12043
NsI12044
NsI12045
NsI127068
NsI12046
NsI12047
NsI12048
NsI119250
NsI12049
NsI12050
NsI127069
NsI12051
NsI119632
NsI12052
NsI12053
NsI12054
NsI43457
NsI12055
NsI127070
NsI43458
NsI43459
NsI43460
NsI12058
NsI43461
NsI6816
NsI6817
NsI6818
NsI6819
NsI6820
NsI6821
NsI6822
NsI118814
NsI6824
NsI6825
NsI6826
NsI6827
NsI6828
NsI6829
NsI12061
NsI43464
NsI12062
NsI43465
NsI12063
NsI42509
NsI43466
NsI43467
NsI43468
NsI119087
NsI43469
NsI42510
NsI119604
NsI127073
NsI119233
NsI42511
NsI119236
NsI119251
NsI42784
NsI127074
NsI119633
NsI126983
NsI127537
NsI42785
NsI127271
NsI127075
NsI64297
NsI119247
NsI43486
NsI12084
NsI43487
NsI65792
NsI119556
NsI127076
NsI12086
NsI119618
NsI10722
NsI12088
NsI7002
NsI7003
NsI7004
NsI7005
NsI7006
NsI7007
NsI7008
NsI7009
NsI7010
NsI7011
NsI7012
NsI7013
NsI7014
NsI7015
NsI7016
NsI7017
NsI7018
NsI12093
NsI66005
NsI7028
NsI7029
NsI7030
NsI7031
NsI7032
NsI7033
NsI7034
NsI7035
NsI7036
NsI127078
NsI119629
NsI127108
NsI119252
NsI65793
NsI126999
NsI10735
NsI119634
NsI42140
NsI10738
NsI42141
NsI10739
NsI42142
NsI43063
NsI42143
NsI10741
NsI42144
NsI119340
NsI42145
NsI42146
NsI42147
NsI43064
NsI42148
NsI10746
NsI42149
NsI10747
NsI42150
NsI42151
NsI119171
NsI42152
NsI43065
NsI127267
NsI42153
NsI42154
NsI65851
NsI119615
NsI42155
NsI42156
NsI42157
NsI127083
NsI42158
NsI42159
NsI127109
NsI42160
NsI42161
NsI10759
NsI42162
NsI127278
NsI127084
NsI42163
NsI42164
NsI7227
NsI7228
NsI7229
NsI7230
NsI7231
NsI127530
NsI42166
NsI42167
NsI10765
NsI42168
NsI127529
NsI42169
NsI42170
NsI119596
NsI42171
NsI119051
NsI42172
NsI127086
NsI42173
NsI10771
NsI42174
NsI42175
NsI7294
NsI7295
NsI42176
NsI42177
NsI127087
NsI42178
NsI43257
NsI42179
NsI10777
NsI42180
NsI42181
NsI119620
NsI42182
NsI127088
NsI12147
NsI119254
NsI127001
NsI127089
NsI119636
NsI7379
NsI66015
NsI10789
NsI119564
NsI127274
NsI127090
NsI119073
NsI10795
NsI127071
NsI119603
NsI12165
NsI127092
NsI10801
NsI66008
NsI64830
NsI64831
NsI127111
NsI10807
NsI119255
NsI119183
NsI119057
NsI127122
NsI127094
NsI119637
NsI12177
NsI119184
NsI127275
NsI127095
NsI119185
NsI119207
NsI127096
NsI119626
NsI119597
NsI10825
NsI119241
NsI127098
NsI10831
NsI127371
NsI68176
NsI68177
NsI119256
NsI68178
NsI68179
NsI68180
NsI127372
NsI126984
NsI65020
NsI65021
NsI68181
NsI126978
NsI68182
NsI68183
NsI65040
NsI65041
NsI65042
NsI65043
NsI65044
NsI65045
NsI65046
NsI65047
NsI65048
NsI65049
NsI12207
NsI119190
NsI43612
NsI43613
NsI65072
NsI65073
NsI65074
NsI65075
NsI65076
NsI43614
NsI65078
NsI65079
NsI65080
NsI65081
NsI65082
NsI43615
NsI65084
NsI65085
NsI65086
NsI65087
NsI65088
NsI65089
NsI65090
NsI65091
NsI65092
NsI65093
NsI65094
NsI65095
NsI65096
NsI65097
NsI65098
NsI65099
NsI65100
NsI65101
NsI65102
NsI65103
NsI65104
NsI65105
NsI65106
NsI65108
NsI65109
NsI65110
NsI65111
NsI65112
NsI65113
NsI65114
NsI65115
NsI65116
NsI65117
NsI65118
NsI65119
NsI65120
NsI65121
NsI65122
NsI65123
NsI65124
NsI65125
NsI65126
NsI65128
NsI65129
NsI65130
NsI65131
NsI119630
NsI127376
NsI66000
NsI12222
NsI12223
NsI119257
NsI119193
NsI12224
NsI127004
NsI12225
NsI127104
NsI12226
NsI127257
NsI66001
NsI12227
NsI12228
NsI119194
NsI12229
NsI127277
NsI68184
NsI12231
NsI66002
NsI12232
NsI10867
NsI119075
NsI12233
NsI119195
NsI12234
NsI127017
NsI12235
NsI127106
NsI12236
NsI43639
NsI66003
NsI12237
NsI10872
NsI12238
NsI43641
NsI119196
NsI12239
NsI127085
NsI12240
NsI127107
NsI12241
NsI66004
NsI12242
NsI12243
NsI12539
NsI119197
NsI12244
NsI68223
NsI12245
NsI65281
NsI65282
NsI65283
NsI65284
NsI65285
NsI65286
NsI65287
NsI65288
NsI65289
NsI65290
NsI65291
NsI65292
NsI65293
NsI65294
NsI65295
NsI118925
NsI119258
NsI119198
NsI127005
NsI65306
NsI65307
NsI65308
NsI65309
NsI65310
NsI65311
NsI65312
NsI66006
NsI127013
NsI119199
NsI65339
NsI65340
NsI65341
NsI65342
NsI65343
NsI65344
NsI66007
NsI127264
NsI65371
NsI65372
NsI65373
NsI65374
NsI65375
NsI65376
NsI65377
NsI65378
NsI65379
NsI65380
NsI65381
NsI43640
NsI119201
NsI127112
NsI66009
NsI65517
NsI65518
NsI127113
NsI66010
NsI119259
NsI127006
NsI127114
NsI8125
NsI66011
NsI8127
NsI8128
NsI8129
NsI118931
NsI8141
NsI8142
NsI8143
NsI119565
NsI127115
NsI66012
NsI8157
NsI8158
NsI8159
NsI65504
NsI65505
NsI65506
NsI65507
NsI65508
NsI65509
NsI65510
NsI65512
NsI65513
NsI65514
NsI65515
NsI65516
NsI8173
NsI8174
NsI8175
NsI127116
NsI127552
NsI66013
NsI65532
NsI8189
NsI8190
Ns.